target datalayout = "e-m:e-p270:32:32-p271:32:32-p272:64:64-i64:64-i128:128-f80:128-n8:16:32:64-S128"
target triple = "x86_64-pc-linux-gnu"

; Function Attrs: mustprogress nounwind uwtable
define noundef i32 @_ZN10open_spiel10phantom_go21ActionToVirtualActionEli(i64 noundef %0, i32 noundef %1) #4 {
  %3 = alloca i32, align 4
  %4 = alloca i64, align 8
  %5 = alloca i32, align 4
  %6 = alloca i32, align 4
  %7 = alloca i32, align 4
  store i64 %0, ptr %4, align 8
  store i32 %1, ptr %5, align 4
  %8 = load i64, ptr %4, align 8
  %9 = load i32, ptr %5, align 4
  %10 = load i32, ptr %5, align 4
  %11 = mul nsw i32 %9, %10
  %12 = sext i32 %11 to i64
  %13 = icmp eq i64 %8, %12
  br i1 %13, label %14, label %15

14:                                               ; preds = %2
  store i32 442, ptr %3, align 4
  br label %32

15:                                               ; preds = %2
  %16 = load i64, ptr %4, align 8
  %17 = load i32, ptr %5, align 4
  %18 = sext i32 %17 to i64
  %19 = sdiv i64 %16, %18
  %20 = trunc i64 %19 to i32
  store i32 %20, ptr %6, align 4
  %21 = load i64, ptr %4, align 8
  %22 = load i32, ptr %5, align 4
  %23 = sext i32 %22 to i64
  %24 = srem i64 %21, %23
  %25 = trunc i64 %24 to i32
  store i32 %25, ptr %7, align 4
  %26 = load i32, ptr %6, align 4
  %27 = add nsw i32 %26, 1
  %28 = mul nsw i32 %27, 21
  %29 = load i32, ptr %7, align 4
  %30 = add nsw i32 %29, 1
  %31 = add nsw i32 %28, %30
  store i32 %31, ptr %3, align 4
  br label %32

32:                                               ; preds = %15, %14
  %33 = load i32, ptr %3, align 4
  ret i32 %33
}