; Function Attrs: mustprogress nofree norecurse nosync nounwind willreturn memory(none) uwtable
define noundef i32 @_ZN10open_spiel10phantom_go21ActionToVirtualActionEli(i64 noundef %0, i32 noundef %1) local_unnamed_addr #6 {
  %3 = mul nsw i32 %1, %1
  %4 = zext nneg i32 %3 to i64
  %5 = icmp eq i64 %0, %4
  br i1 %5, label %15, label %6

6:                                                ; preds = %2
  %7 = sext i32 %1 to i64
  %8 = sdiv i64 %0, %7
  %9 = trunc i64 %8 to i32
  %10 = srem i64 %0, %7
  %11 = trunc nsw i64 %10 to i32
  %12 = mul i32 %9, 21
  %13 = add i32 %11, 22
  %14 = add i32 %13, %12
  br label %15

15:                                               ; preds = %2, %6
  %.0 = phi i32 [ %14, %6 ], [ 442, %2 ]
  ret i32 %.0
}